; Function Attrs: mustprogress uwtable
define hidden void @_ZN4cvc58internal6theory11quantifiers9QuantInfo11revertMatchERKSt6vectorImSaImEE(ptr noundef nonnull align 8 dereferenceable(648) %0, ptr noundef nonnull readonly align 8 captures(none) dereferenceable(24) %1) local_unnamed_addr #3 align 2 {
  %3 = load ptr, ptr %1, align 8, !tbaa !177
  %4 = getelementptr inbounds nuw i8, ptr %1, i64 8
  %5 = load ptr, ptr %4, align 8, !tbaa !177
  %.not7 = icmp eq ptr %3, %5
  br i1 %.not7, label %._crit_edge, label %.lr.ph

._crit_edge:                                      ; preds = %.lr.ph, %2
  ret void

.lr.ph:                                           ; preds = %2, %.lr.ph
  %.sroa.04.08 = phi ptr [ %7, %.lr.ph ], [ %3, %2 ]
  %6 = load i64, ptr %.sroa.04.08, align 8, !tbaa !133
  tail call void @_ZN4cvc58internal6theory11quantifiers9QuantInfo10unsetMatchEm(ptr noundef nonnull align 8 dereferenceable(648) %0, i64 noundef %6)
  %7 = getelementptr inbounds nuw i8, ptr %.sroa.04.08, i64 8
  %.not = icmp eq ptr %7, %5
  br i1 %.not, label %._crit_edge, label %.lr.ph
}